; Function Attrs: nounwind uwtable
define void @lv_span_set_text_static(ptr noundef %0, ptr noundef %1) local_unnamed_addr #0 {
  %3 = icmp eq ptr %0, null
  %4 = icmp eq ptr %1, null
  %or.cond = or i1 %3, %4
  br i1 %or.cond, label %23, label %5

5:                                                ; preds = %2
  %6 = load ptr, ptr %0, align 8, !tbaa !16
  %.not = icmp eq ptr %6, null
  br i1 %.not, label %13, label %7

7:                                                ; preds = %5
  %8 = getelementptr inbounds nuw i8, ptr %0, i64 32
  %9 = load i8, ptr %8, align 8
  %10 = and i8 %9, 1
  %11 = icmp eq i8 %10, 0
  br i1 %11, label %12, label %13

12:                                               ; preds = %7
  tail call void @lv_free(ptr noundef nonnull %6) #8
  br label %13

13:                                               ; preds = %12, %7, %5
  %14 = getelementptr inbounds nuw i8, ptr %0, i64 32
  %15 = load i8, ptr %14, align 8
  %16 = or i8 %15, 1
  store i8 %16, ptr %14, align 8
  store ptr %1, ptr %0, align 8, !tbaa !16
  %17 = getelementptr inbounds nuw i8, ptr %0, i64 8
  %18 = load ptr, ptr %17, align 8, !tbaa !72
  %19 = getelementptr inbounds nuw i8, ptr %18, i64 104
  %20 = load i8, ptr %19, align 8
  %21 = or i8 %20, 8
  store i8 %21, ptr %19, align 8
  tail call void @lv_obj_invalidate(ptr noundef %18) #8
  %22 = tail call zeroext i1 @lv_obj_refresh_self_size(ptr noundef %18) #8
  br label %23

23:                                               ; preds = %2, %13
  ret void
}